target datalayout = "e-m:e-p270:32:32-p271:32:32-p272:64:64-i64:64-i128:128-f80:128-n8:16:32:64-S128"
target triple = "x86_64-pc-linux-gnu"

%class.prime_iterator = type <{ i32, [4 x i8], ptr, i8, [7 x i8] }>

@_ZL17g_prime_generator = internal global { { ptr } } zeroinitializer, align 8

; Function Attrs: mustprogress nounwind uwtable
define hidden void @_ZN14prime_iteratorC2EP15prime_generator(ptr noundef nonnull align 8 dereferenceable(17) %0, ptr noundef %1) unnamed_addr #6 align 2 {
  %3 = alloca ptr, align 8
  %4 = alloca ptr, align 8
  store ptr %0, ptr %3, align 8, !tbaa !35
  store ptr %1, ptr %4, align 8, !tbaa !3
  %5 = load ptr, ptr %3, align 8
  %6 = getelementptr inbounds nuw %class.prime_iterator, ptr %5, i32 0, i32 0
  store i32 0, ptr %6, align 8, !tbaa !37
  %7 = load ptr, ptr %4, align 8, !tbaa !3
  %8 = icmp eq ptr %7, null
  br i1 %8, label %9, label %12

9:                                                ; preds = %2
  %10 = getelementptr inbounds nuw %class.prime_iterator, ptr %5, i32 0, i32 2
  store ptr @_ZL17g_prime_generator, ptr %10, align 8, !tbaa !40
  %11 = getelementptr inbounds nuw %class.prime_iterator, ptr %5, i32 0, i32 3
  store i8 1, ptr %11, align 8, !tbaa !41
  br label %16

12:                                               ; preds = %2
  %13 = load ptr, ptr %4, align 8, !tbaa !3
  %14 = getelementptr inbounds nuw %class.prime_iterator, ptr %5, i32 0, i32 2
  store ptr %13, ptr %14, align 8, !tbaa !40
  %15 = getelementptr inbounds nuw %class.prime_iterator, ptr %5, i32 0, i32 3
  store i8 0, ptr %15, align 8, !tbaa !41
  br label %16

16:                                               ; preds = %12, %9
  ret void
}