; Function Attrs: mustprogress nofree norecurse nosync nounwind willreturn memory(argmem: write) uwtable
define hidden void @_ZN14prime_iteratorC2EP15prime_generator(ptr noundef nonnull writeonly align 8 captures(none) dereferenceable(17) initializes((0, 4), (8, 17)) %0, ptr noundef %1) unnamed_addr #8 align 2 {
  store i32 0, ptr %0, align 8, !tbaa !32
  %3 = icmp eq ptr %1, null
  %spec.select = select i1 %3, ptr @_ZL17g_prime_generator, ptr %1
  %spec.select4 = zext i1 %3 to i8
  %4 = getelementptr inbounds nuw i8, ptr %0, i64 8
  store ptr %spec.select, ptr %4, align 8, !tbaa !36
  %5 = getelementptr inbounds nuw i8, ptr %0, i64 16
  store i8 %spec.select4, ptr %5, align 8, !tbaa !37
  ret void
}